; Function Attrs: mustprogress nofree norecurse nosync nounwind memory(readwrite, inaccessiblemem: none) uwtable
define dso_local void @_ZN4llvm14DebugValueUser18untrackDebugValuesEv(ptr noundef nonnull align 8 dereferenceable(24) %0) local_unnamed_addr #2 align 2 {
  br label %2

2:                                                ; preds = %1, %5
  %.0.idx10 = phi i64 [ 0, %1 ], [ %.0.add, %5 ]
  %.0.ptr11 = getelementptr inbounds i8, ptr %0, i64 %.0.idx10
  %3 = load ptr, ptr %.0.ptr11, align 8
  %.not9 = icmp eq ptr %3, null
  br i1 %.not9, label %5, label %4

4:                                                ; preds = %2
  tail call void @_ZN4llvm16MetadataTracking7untrackEPvRNS_8MetadataE(ptr noundef nonnull %.0.ptr11, ptr noundef nonnull align 4 dereferenceable(8) %3)
  br label %5

5:                                                ; preds = %2, %4
  %.0.add = add nuw nsw i64 %.0.idx10, 8
  %.not = icmp eq i64 %.0.add, 24
  br i1 %.not, label %6, label %2

6:                                                ; preds = %5
  ret void
}